target datalayout = "e-m:e-p270:32:32-p271:32:32-p272:64:64-i64:64-i128:128-f80:128-n8:16:32:64-S128"
target triple = "x86_64-pc-linux-gnu"

%struct.DdManager = type { %struct.DdNode, ptr, ptr, ptr, ptr, ptr, ptr, ptr, i32, i32, double, double, double, i32, i32, i32, i32, i32, i32, ptr, ptr, %struct.DdSubtable, i32, i32, i32, i32, i32, i32, i32, double, i32, i32, i32, ptr, i64, double, i32, ptr, ptr, ptr, ptr, ptr, ptr, ptr, i32, ptr, ptr, ptr, ptr, ptr, ptr, i32, i32, i32, double, i32, i32, i32, i32, double, double, i32, i32, i32, i32, i32, i32, i32, i32, i32, ptr, ptr, i32, i32, i32, i32, i32, i32, ptr, ptr, ptr, ptr, ptr, ptr, ptr, ptr, i32, i64, i64, i64, i32, i64, i64, double, double, double, double, double, double, i32, ptr, ptr, i64 }
%struct.DdNode = type { i32, i32, ptr, %union.anon, i64 }
%union.anon = type { %struct.DdChildren }
%struct.DdChildren = type { ptr, ptr }
%struct.DdSubtable = type { ptr, i32, i32, i32, i32, i32, i32, i32, i32, i32, i32, i32 }

@.str = private unnamed_addr constant [20 x i8] c": is the empty ZDD\0A\00", align 1
@.str.1 = private unnamed_addr constant [24 x i8] c": %d nodes %g minterms\0A\00", align 1
@.str.2 = private unnamed_addr constant [2 x i8] c"\0A\00", align 1

; Function Attrs: nounwind uwtable
define i32 @Cudd_zddPrintMinterm(ptr noundef %0, ptr noundef %1) #0 {
  %3 = alloca i32, align 4
  %4 = alloca ptr, align 8
  %5 = alloca ptr, align 8
  %6 = alloca i32, align 4
  %7 = alloca i32, align 4
  %8 = alloca ptr, align 8
  store ptr %0, ptr %4, align 8
  store ptr %1, ptr %5, align 8
  %9 = load ptr, ptr %4, align 8
  %10 = getelementptr inbounds %struct.DdManager, ptr %9, i32 0, i32 16
  %11 = load i32, ptr %10, align 4
  store i32 %11, ptr %7, align 4
  %12 = load i32, ptr %7, align 4
  %13 = sext i32 %12 to i64
  %14 = mul i64 4, %13
  %15 = call noalias ptr @malloc(i64 noundef %14) #4
  store ptr %15, ptr %8, align 8
  %16 = load ptr, ptr %8, align 8
  %17 = icmp eq ptr %16, null
  br i1 %17, label %18, label %21

18:                                               ; preds = %2
  %19 = load ptr, ptr %4, align 8
  %20 = getelementptr inbounds %struct.DdManager, ptr %19, i32 0, i32 86
  store i32 1, ptr %20, align 8
  store i32 0, ptr %3, align 4
  br label %44

21:                                               ; preds = %2
  store i32 0, ptr %6, align 4
  br label %22

22:                                               ; preds = %31, %21
  %23 = load i32, ptr %6, align 4
  %24 = load i32, ptr %7, align 4
  %25 = icmp slt i32 %23, %24
  br i1 %25, label %26, label %34

26:                                               ; preds = %22
  %27 = load ptr, ptr %8, align 8
  %28 = load i32, ptr %6, align 4
  %29 = sext i32 %28 to i64
  %30 = getelementptr inbounds i32, ptr %27, i64 %29
  store i32 3, ptr %30, align 4
  br label %31

31:                                               ; preds = %26
  %32 = load i32, ptr %6, align 4
  %33 = add nsw i32 %32, 1
  store i32 %33, ptr %6, align 4
  br label %22, !llvm.loop !4

34:                                               ; preds = %22
  %35 = load ptr, ptr %4, align 8
  %36 = load ptr, ptr %5, align 8
  %37 = load ptr, ptr %8, align 8
  call void @zdd_print_minterm_aux(ptr noundef %35, ptr noundef %36, i32 noundef 0, ptr noundef %37)
  %38 = load ptr, ptr %8, align 8
  %39 = icmp ne ptr %38, null
  br i1 %39, label %40, label %42

40:                                               ; preds = %34
  %41 = load ptr, ptr %8, align 8
  call void @free(ptr noundef %41) #5
  store ptr null, ptr %8, align 8
  br label %43

42:                                               ; preds = %34
  br label %43

43:                                               ; preds = %42, %40
  store i32 1, ptr %3, align 4
  br label %44

44:                                               ; preds = %43, %18
  %45 = load i32, ptr %3, align 4
  ret i32 %45
}

; Function Attrs: nounwind uwtable
define i32 @cuddZddP(ptr noundef %0, ptr noundef %1) #0 {
  %3 = alloca i32, align 4
  %4 = alloca ptr, align 8
  %5 = alloca ptr, align 8
  %6 = alloca i32, align 4
  %7 = alloca ptr, align 8
  store ptr %0, ptr %4, align 8
  store ptr %1, ptr %5, align 8
  %8 = call ptr @st__init_table(ptr noundef @st__ptrcmp, ptr noundef @st__ptrhash)
  store ptr %8, ptr %7, align 8
  %9 = load ptr, ptr %7, align 8
  %10 = icmp eq ptr %9, null
  br i1 %10, label %11, label %12

11:                                               ; preds = %2
  store i32 0, ptr %3, align 4
  br label %23

12:                                               ; preds = %2
  %13 = load ptr, ptr %4, align 8
  %14 = load ptr, ptr %5, align 8
  %15 = load ptr, ptr %7, align 8
  %16 = call i32 @zp2(ptr noundef %13, ptr noundef %14, ptr noundef %15)
  store i32 %16, ptr %6, align 4
  %17 = load ptr, ptr %7, align 8
  call void @st__free_table(ptr noundef %17)
  %18 = load ptr, ptr %4, align 8
  %19 = getelementptr inbounds %struct.DdManager, ptr %18, i32 0, i32 84
  %20 = load ptr, ptr %19, align 8
  %21 = call i32 @fputc(i32 noundef 10, ptr noundef %20)
  %22 = load i32, ptr %6, align 4
  store i32 %22, ptr %3, align 4
  br label %23

23:                                               ; preds = %12, %11
  %24 = load i32, ptr %3, align 4
  ret i32 %24
}

; Function Attrs: nounwind uwtable
define i32 @Cudd_zddPrintDebug(ptr noundef %0, ptr noundef %1, i32 noundef %2, i32 noundef %3) #0 {
  %5 = alloca i32, align 4
  %6 = alloca ptr, align 8
  %7 = alloca ptr, align 8
  %8 = alloca i32, align 4
  %9 = alloca i32, align 4
  %10 = alloca ptr, align 8
  %11 = alloca i32, align 4
  %12 = alloca double, align 8
  %13 = alloca i32, align 4
  store ptr %0, ptr %6, align 8
  store ptr %1, ptr %7, align 8
  store i32 %2, ptr %8, align 4
  store i32 %3, ptr %9, align 4
  %14 = load ptr, ptr %6, align 8
  %15 = getelementptr inbounds %struct.DdManager, ptr %14, i32 0, i32 2
  %16 = load ptr, ptr %15, align 8
  store ptr %16, ptr %10, align 8
  store i32 1, ptr %13, align 4
  %17 = load ptr, ptr %7, align 8
  %18 = load ptr, ptr %10, align 8
  %19 = icmp eq ptr %17, %18
  br i1 %19, label %20, label %32

20:                                               ; preds = %4
  %21 = load i32, ptr %9, align 4
  %22 = icmp sgt i32 %21, 0
  br i1 %22, label %23, label %32

23:                                               ; preds = %20
  %24 = load ptr, ptr %6, align 8
  %25 = getelementptr inbounds %struct.DdManager, ptr %24, i32 0, i32 84
  %26 = load ptr, ptr %25, align 8
  %27 = call i32 (ptr, ptr, ...) @fprintf(ptr noundef %26, ptr noundef @.str) #5
  %28 = load ptr, ptr %6, align 8
  %29 = getelementptr inbounds %struct.DdManager, ptr %28, i32 0, i32 84
  %30 = load ptr, ptr %29, align 8
  %31 = call i32 @fflush(ptr noundef %30)
  store i32 1, ptr %5, align 4
  br label %89

32:                                               ; preds = %20, %4
  %33 = load i32, ptr %9, align 4
  %34 = icmp sgt i32 %33, 0
  br i1 %34, label %35, label %87

35:                                               ; preds = %32
  %36 = load ptr, ptr %7, align 8
  %37 = call i32 @Cudd_zddDagSize(ptr noundef %36)
  store i32 %37, ptr %11, align 4
  %38 = load i32, ptr %11, align 4
  %39 = icmp eq i32 %38, -1
  br i1 %39, label %40, label %41

40:                                               ; preds = %35
  store i32 0, ptr %13, align 4
  br label %41

41:                                               ; preds = %40, %35
  %42 = load ptr, ptr %6, align 8
  %43 = load ptr, ptr %7, align 8
  %44 = load i32, ptr %8, align 4
  %45 = call double @Cudd_zddCountMinterm(ptr noundef %42, ptr noundef %43, i32 noundef %44)
  store double %45, ptr %12, align 8
  %46 = load double, ptr %12, align 8
  %47 = fcmp oeq double %46, -1.000000e+00
  br i1 %47, label %48, label %49

48:                                               ; preds = %41
  store i32 0, ptr %13, align 4
  br label %49

49:                                               ; preds = %48, %41
  %50 = load ptr, ptr %6, align 8
  %51 = getelementptr inbounds %struct.DdManager, ptr %50, i32 0, i32 84
  %52 = load ptr, ptr %51, align 8
  %53 = load i32, ptr %11, align 4
  %54 = load double, ptr %12, align 8
  %55 = call i32 (ptr, ptr, ...) @fprintf(ptr noundef %52, ptr noundef @.str.1, i32 noundef %53, double noundef %54) #5
  %56 = load i32, ptr %9, align 4
  %57 = icmp sgt i32 %56, 2
  br i1 %57, label %58, label %65

58:                                               ; preds = %49
  %59 = load ptr, ptr %6, align 8
  %60 = load ptr, ptr %7, align 8
  %61 = call i32 @cuddZddP(ptr noundef %59, ptr noundef %60)
  %62 = icmp ne i32 %61, 0
  br i1 %62, label %64, label %63

63:                                               ; preds = %58
  store i32 0, ptr %13, align 4
  br label %64

64:                                               ; preds = %63, %58
  br label %65

65:                                               ; preds = %64, %49
  %66 = load i32, ptr %9, align 4
  %67 = icmp eq i32 %66, 2
  br i1 %67, label %71, label %68

68:                                               ; preds = %65
  %69 = load i32, ptr %9, align 4
  %70 = icmp sgt i32 %69, 3
  br i1 %70, label %71, label %82

71:                                               ; preds = %68, %65
  %72 = load ptr, ptr %6, align 8
  %73 = load ptr, ptr %7, align 8
  %74 = call i32 @Cudd_zddPrintMinterm(ptr noundef %72, ptr noundef %73)
  %75 = icmp ne i32 %74, 0
  br i1 %75, label %77, label %76

76:                                               ; preds = %71
  store i32 0, ptr %13, align 4
  br label %77

77:                                               ; preds = %76, %71
  %78 = load ptr, ptr %6, align 8
  %79 = getelementptr inbounds %struct.DdManager, ptr %78, i32 0, i32 84
  %80 = load ptr, ptr %79, align 8
  %81 = call i32 (ptr, ptr, ...) @fprintf(ptr noundef %80, ptr noundef @.str.2) #5
  br label %82

82:                                               ; preds = %77, %68
  %83 = load ptr, ptr %6, align 8
  %84 = getelementptr inbounds %struct.DdManager, ptr %83, i32 0, i32 84
  %85 = load ptr, ptr %84, align 8
  %86 = call i32 @fflush(ptr noundef %85)
  br label %87

87:                                               ; preds = %82, %32
  %88 = load i32, ptr %13, align 4
  store i32 %88, ptr %5, align 4
  br label %89

89:                                               ; preds = %87, %23
  %90 = load i32, ptr %5, align 4
  ret i32 %90
}