; Function Attrs: nounwind uwtable
define range(i32 0, 2) i32 @Cudd_zddPrintDebug(ptr noundef %0, ptr noundef %1, i32 noundef %2, i32 noundef %3) local_unnamed_addr #0 {
  %5 = getelementptr inbounds nuw i8, ptr %0, i64 48
  %6 = load ptr, ptr %5, align 8
  %7 = icmp eq ptr %1, %6
  %8 = icmp sgt i32 %3, 0
  %or.cond = and i1 %8, %7
  br i1 %or.cond, label %9, label %13

9:                                                ; preds = %4
  %10 = getelementptr inbounds nuw i8, ptr %0, i64 608
  %11 = load ptr, ptr %10, align 8
  %12 = tail call i64 @fwrite(ptr nonnull @.str, i64 19, i64 1, ptr %11)
  br label %.sink.split

13:                                               ; preds = %4
  br i1 %8, label %14, label %47

14:                                               ; preds = %13
  %15 = tail call i32 @Cudd_zddDagSize(ptr noundef %1) #11
  %16 = icmp ne i32 %15, -1
  %17 = tail call double @Cudd_zddCountMinterm(ptr noundef nonnull %0, ptr noundef %1, i32 noundef %2) #11
  %18 = fcmp une double %17, -1.000000e+00
  %narrow = select i1 %18, i1 %16, i1 false
  %19 = getelementptr inbounds nuw i8, ptr %0, i64 608
  %20 = load ptr, ptr %19, align 8
  %21 = tail call i32 (ptr, ptr, ...) @fprintf(ptr noundef %20, ptr noundef nonnull @.str.1, i32 noundef %15, double noundef %17) #11
  %22 = icmp samesign ugt i32 %3, 2
  br i1 %22, label %23, label %29

23:                                               ; preds = %14
  %24 = tail call ptr @st__init_table(ptr noundef nonnull @st__ptrcmp, ptr noundef nonnull @st__ptrhash) #11
  %25 = icmp eq ptr %24, null
  br i1 %25, label %cuddZddP.exit.thread, label %cuddZddP.exit

cuddZddP.exit:                                    ; preds = %23
  %26 = tail call fastcc i32 @zp2(ptr noundef nonnull %0, ptr noundef %1, ptr noundef %24)
  tail call void @st__free_table(ptr noundef nonnull %24) #11
  %27 = load ptr, ptr %19, align 8
  %28 = tail call i32 @fputc(i32 noundef 10, ptr noundef %27)
  %.fr = freeze i32 %26
  %.not = icmp eq i32 %.fr, 0
  br i1 %.not, label %cuddZddP.exit.thread, label %29

cuddZddP.exit.thread:                             ; preds = %23, %cuddZddP.exit
  br label %29

29:                                               ; preds = %cuddZddP.exit.thread, %cuddZddP.exit, %14
  %.3.shrunk = phi i1 [ %narrow, %14 ], [ false, %cuddZddP.exit.thread ], [ %narrow, %cuddZddP.exit ]
  %.3 = zext i1 %.3.shrunk to i32
  %30 = icmp eq i32 %3, 2
  %31 = icmp samesign ugt i32 %3, 3
  %or.cond3 = or i1 %30, %31
  br i1 %or.cond3, label %32, label %.sink.split

32:                                               ; preds = %29
  %33 = getelementptr inbounds nuw i8, ptr %0, i64 140
  %34 = load i32, ptr %33, align 4
  %35 = sext i32 %34 to i64
  %36 = shl nsw i64 %35, 2
  %37 = tail call noalias ptr @malloc(i64 noundef %36) #10
  %38 = icmp eq ptr %37, null
  br i1 %38, label %41, label %.preheader.i

.preheader.i:                                     ; preds = %32
  %39 = icmp sgt i32 %34, 0
  br i1 %39, label %.lr.ph.preheader.i, label %Cudd_zddPrintMinterm.exit

.lr.ph.preheader.i:                               ; preds = %.preheader.i
  %wide.trip.count.i = zext nneg i32 %34 to i64
  br label %.lr.ph.i

.lr.ph.i:                                         ; preds = %.lr.ph.i, %.lr.ph.preheader.i
  %indvars.iv.i = phi i64 [ 0, %.lr.ph.preheader.i ], [ %indvars.iv.next.i, %.lr.ph.i ]
  %40 = getelementptr inbounds nuw i32, ptr %37, i64 %indvars.iv.i
  store i32 3, ptr %40, align 4
  %indvars.iv.next.i = add nuw nsw i64 %indvars.iv.i, 1
  %exitcond.not.i = icmp eq i64 %indvars.iv.next.i, %wide.trip.count.i
  br i1 %exitcond.not.i, label %Cudd_zddPrintMinterm.exit, label %.lr.ph.i, !llvm.loop !4

Cudd_zddPrintMinterm.exit:                        ; preds = %.lr.ph.i, %.preheader.i
  tail call fastcc void @zdd_print_minterm_aux(ptr noundef nonnull %0, ptr noundef %1, i32 noundef 0, ptr noundef %37)
  tail call void @free(ptr noundef nonnull %37) #11
  br label %43

41:                                               ; preds = %32
  %42 = getelementptr inbounds nuw i8, ptr %0, i64 624
  store i32 1, ptr %42, align 8
  br label %43

43:                                               ; preds = %Cudd_zddPrintMinterm.exit, %41
  %44 = phi i32 [ 0, %41 ], [ %.3, %Cudd_zddPrintMinterm.exit ]
  %45 = load ptr, ptr %19, align 8
  %fputc = tail call i32 @fputc(i32 10, ptr %45)
  br label %.sink.split

.sink.split:                                      ; preds = %43, %29, %9
  %.sink.in = phi ptr [ %10, %9 ], [ %19, %29 ], [ %19, %43 ]
  %.029.ph = phi i32 [ 1, %9 ], [ %.3, %29 ], [ %44, %43 ]
  %.sink = load ptr, ptr %.sink.in, align 8
  %46 = tail call i32 @fflush(ptr noundef %.sink)
  br label %47

47:                                               ; preds = %.sink.split, %13
  %.029 = phi i32 [ 1, %13 ], [ %.029.ph, %.sink.split ]
  ret i32 %.029
}